target datalayout = "e-m:e-p270:32:32-p271:32:32-p272:64:64-i64:64-i128:128-f80:128-n8:16:32:64-S128"
target triple = "x86_64-pc-linux-gnu"

%struct.BackendGlobalData = type <{ ptr, ptr, i8, i8, i8, i8, i8, i8, i8, i8, i8, [3 x i8], i32, ptr, ptr, ptr, ptr, ptr, ptr, ptr, ptr, ptr, ptr, ptr, ptr, ptr, i32, %struct.jvmtiCapabilities, i8, [3 x i8], %struct.jvmtiEventCallbacks, ptr, ptr, ptr, ptr, ptr, ptr, ptr, i32, [4 x i8], ptr, i64, i32, [4 x i8], ptr, i32, i32, i8, i8, [6 x i8] }>
%struct.jvmtiCapabilities = type { i64, i64 }
%struct.jvmtiEventCallbacks = type { ptr, ptr, ptr, ptr, ptr, ptr, ptr, ptr, ptr, ptr, ptr, ptr, ptr, ptr, ptr, ptr, ptr, ptr, ptr, ptr, ptr, ptr, ptr, ptr, ptr, ptr, ptr, ptr, ptr, ptr, ptr, ptr, ptr, ptr, ptr, ptr, ptr, ptr, ptr }
%struct.EventInfo = type { i32, ptr, i8, ptr, ptr, i64, ptr, %union.anon }
%union.anon = type { %struct.anon.0 }
%struct.anon.0 = type { ptr, ptr, i8, %union.jvalue }
%union.jvalue = type { i64 }

@stderr = external global ptr, align 8
@.str = private unnamed_addr constant [17 x i8] c"JDWP exit error \00", align 1
@.str.1 = private unnamed_addr constant [2 x i8] c"\0A\00", align 1
@.str.2 = private unnamed_addr constant [19 x i8] c"%s(%d): %s [%s:%d]\00", align 1
@.str.4 = private unnamed_addr constant [55 x i8] c"src/jdk.jdwp.agent/share/native/libjdwp/eventHandler.c\00", align 1
@gdata = external global ptr, align 8
@.str.6 = private unnamed_addr constant [42 x i8] c"Can't get jclass for a methodID, invalid?\00", align 1
@active_callbacks = internal global i32 0, align 4
@vm_death_callback_active = internal global i8 0, align 1
@callbackLock = internal global ptr null, align 8
@callbackBlock = internal global ptr null, align 8
@.str.25 = private unnamed_addr constant [5 x i8] c"MISC\00", align 1
@.str.28 = private unnamed_addr constant [3 x i8] c"CB\00", align 1
@.str.30 = private unnamed_addr constant [35 x i8] c"Problems tracking active callbacks\00", align 1
@.str.59 = private unnamed_addr constant [25 x i8] c"cbMethodEntry: thread=%p\00", align 1
@.str.60 = private unnamed_addr constant [18 x i8] c"END cbMethodEntry\00", align 1

; Function Attrs: nounwind uwtable
define hidden ptr @getMethodClass(ptr noundef %0, ptr noundef %1) #0 {
  %3 = alloca ptr, align 8
  %4 = alloca ptr, align 8
  %5 = alloca ptr, align 8
  %6 = alloca ptr, align 8
  %7 = alloca i32, align 4
  store ptr %0, ptr %4, align 8
  store ptr %1, ptr %5, align 8
  store ptr null, ptr %6, align 8
  %8 = load ptr, ptr %5, align 8
  %9 = icmp eq ptr %8, null
  br i1 %9, label %10, label %11

10:                                               ; preds = %2
  store ptr null, ptr %3, align 8
  br label %24

11:                                               ; preds = %2
  %12 = load ptr, ptr %5, align 8
  %13 = call i32 @methodClass(ptr noundef %12, ptr noundef %6)
  store i32 %13, ptr %7, align 4
  %14 = load i32, ptr %7, align 4
  %15 = icmp ne i32 %14, 0
  br i1 %15, label %16, label %22

16:                                               ; preds = %11
  %17 = load ptr, ptr @stderr, align 8
  %18 = load i32, ptr %7, align 4
  %19 = call ptr @jvmtiErrorText(i32 noundef %18)
  %20 = load i32, ptr %7, align 4
  call void (ptr, ptr, ptr, ptr, ...) @print_message(ptr noundef %17, ptr noundef @.str, ptr noundef @.str.1, ptr noundef @.str.2, ptr noundef %19, i32 noundef %20, ptr noundef @.str.6, ptr noundef @.str.4, i32 noundef 728)
  %21 = load i32, ptr %7, align 4
  call void @debugInit_exit(i32 noundef %21, ptr noundef @.str.6)
  store ptr null, ptr %3, align 8
  br label %24

22:                                               ; preds = %11
  %23 = load ptr, ptr %6, align 8
  store ptr %23, ptr %3, align 8
  br label %24

24:                                               ; preds = %22, %16, %10
  %25 = load ptr, ptr %3, align 8
  ret ptr %25
}

; Function Attrs: nounwind uwtable
define internal void @cbMethodEntry(ptr noundef %0, ptr noundef %1, ptr noundef %2, ptr noundef %3) #0 {
  %5 = alloca ptr, align 8
  %6 = alloca ptr, align 8
  %7 = alloca ptr, align 8
  %8 = alloca ptr, align 8
  %9 = alloca %struct.EventInfo, align 8
  %10 = alloca i8, align 1
  store ptr %0, ptr %5, align 8
  store ptr %1, ptr %6, align 8
  store ptr %2, ptr %7, align 8
  store ptr %3, ptr %8, align 8
  %11 = load ptr, ptr @gdata, align 8
  %12 = getelementptr inbounds %struct.BackendGlobalData, ptr %11, i32 0, i32 38
  %13 = load i32, ptr %12, align 8
  %14 = and i32 %13, 64
  %15 = icmp ne i32 %14, 0
  br i1 %15, label %16, label %18

16:                                               ; preds = %4
  call void @log_message_begin(ptr noundef @.str.28, ptr noundef @.str.4, i32 noundef 1045)
  %17 = load ptr, ptr %7, align 8
  call void (ptr, ...) @log_message_end(ptr noundef @.str.59, ptr noundef %17)
  br label %19

18:                                               ; preds = %4
  br label %19

19:                                               ; preds = %18, %16
  store i8 1, ptr %10, align 1
  %20 = load ptr, ptr @callbackLock, align 8
  call void @debugMonitorEnter(ptr noundef %20)
  %21 = load i8, ptr @vm_death_callback_active, align 1
  %22 = icmp ne i8 %21, 0
  br i1 %22, label %23, label %27

23:                                               ; preds = %19
  %24 = load ptr, ptr @callbackLock, align 8
  call void @debugMonitorExit(ptr noundef %24)
  %25 = load ptr, ptr @callbackBlock, align 8
  call void @debugMonitorEnter(ptr noundef %25)
  %26 = load ptr, ptr @callbackBlock, align 8
  call void @debugMonitorExit(ptr noundef %26)
  br label %31

27:                                               ; preds = %19
  %28 = load i32, ptr @active_callbacks, align 4
  %29 = add nsw i32 %28, 1
  store i32 %29, ptr @active_callbacks, align 4
  store i8 0, ptr %10, align 1
  %30 = load ptr, ptr @callbackLock, align 8
  call void @debugMonitorExit(ptr noundef %30)
  br label %31

31:                                               ; preds = %27, %23
  %32 = load i8, ptr %10, align 1
  %33 = icmp ne i8 %32, 0
  br i1 %33, label %73, label %34

34:                                               ; preds = %31
  call void @llvm.memset.p0.i64(ptr align 8 %9, i8 0, i64 88, i1 false)
  %35 = getelementptr inbounds %struct.EventInfo, ptr %9, i32 0, i32 0
  store i32 13, ptr %35, align 8
  %36 = load ptr, ptr %7, align 8
  %37 = getelementptr inbounds %struct.EventInfo, ptr %9, i32 0, i32 1
  store ptr %36, ptr %37, align 8
  %38 = load ptr, ptr %5, align 8
  %39 = load ptr, ptr %8, align 8
  %40 = call ptr @getMethodClass(ptr noundef %38, ptr noundef %39)
  %41 = getelementptr inbounds %struct.EventInfo, ptr %9, i32 0, i32 3
  store ptr %40, ptr %41, align 8
  %42 = load ptr, ptr %8, align 8
  %43 = getelementptr inbounds %struct.EventInfo, ptr %9, i32 0, i32 4
  store ptr %42, ptr %43, align 8
  %44 = load ptr, ptr %6, align 8
  call void @event_callback(ptr noundef %44, ptr noundef %9)
  %45 = load ptr, ptr @callbackLock, align 8
  call void @debugMonitorEnter(ptr noundef %45)
  %46 = load i32, ptr @active_callbacks, align 4
  %47 = add nsw i32 %46, -1
  store i32 %47, ptr @active_callbacks, align 4
  %48 = load i32, ptr @active_callbacks, align 4
  %49 = icmp slt i32 %48, 0
  br i1 %49, label %50, label %53

50:                                               ; preds = %34
  %51 = load ptr, ptr @stderr, align 8
  %52 = call ptr @jvmtiErrorText(i32 noundef 0)
  call void (ptr, ptr, ptr, ptr, ...) @print_message(ptr noundef %51, ptr noundef @.str, ptr noundef @.str.1, ptr noundef @.str.2, ptr noundef %52, i32 noundef 0, ptr noundef @.str.30, ptr noundef @.str.4, i32 noundef 1054)
  call void @debugInit_exit(i32 noundef 0, ptr noundef @.str.30)
  br label %53

53:                                               ; preds = %50, %34
  %54 = load i8, ptr @vm_death_callback_active, align 1
  %55 = icmp ne i8 %54, 0
  br i1 %55, label %56, label %65

56:                                               ; preds = %53
  %57 = load i32, ptr @active_callbacks, align 4
  %58 = icmp eq i32 %57, 0
  br i1 %58, label %59, label %61

59:                                               ; preds = %56
  %60 = load ptr, ptr @callbackLock, align 8
  call void @debugMonitorNotifyAll(ptr noundef %60)
  br label %61

61:                                               ; preds = %59, %56
  %62 = load ptr, ptr @callbackLock, align 8
  call void @debugMonitorExit(ptr noundef %62)
  %63 = load ptr, ptr @callbackBlock, align 8
  call void @debugMonitorEnter(ptr noundef %63)
  %64 = load ptr, ptr @callbackBlock, align 8
  call void @debugMonitorExit(ptr noundef %64)
  br label %72

65:                                               ; preds = %53
  %66 = load i32, ptr @active_callbacks, align 4
  %67 = icmp eq i32 %66, 0
  br i1 %67, label %68, label %70

68:                                               ; preds = %65
  %69 = load ptr, ptr @callbackLock, align 8
  call void @debugMonitorNotifyAll(ptr noundef %69)
  br label %70

70:                                               ; preds = %68, %65
  %71 = load ptr, ptr @callbackLock, align 8
  call void @debugMonitorExit(ptr noundef %71)
  br label %72

72:                                               ; preds = %70, %61
  br label %73

73:                                               ; preds = %72, %31
  %74 = load ptr, ptr @gdata, align 8
  %75 = getelementptr inbounds %struct.BackendGlobalData, ptr %74, i32 0, i32 38
  %76 = load i32, ptr %75, align 8
  %77 = and i32 %76, 8
  %78 = icmp ne i32 %77, 0
  br i1 %78, label %79, label %80

79:                                               ; preds = %73
  call void @log_message_begin(ptr noundef @.str.25, ptr noundef @.str.4, i32 noundef 1056)
  call void (ptr, ...) @log_message_end(ptr noundef @.str.60)
  br label %81

80:                                               ; preds = %73
  br label %81

81:                                               ; preds = %80, %79
  ret void
}