; Function Attrs: nounwind uwtable
define internal void @cbMethodEntry(ptr nocapture readnone %0, ptr noundef %1, ptr noundef %2, ptr noundef %3) #0 {
  %5 = alloca ptr, align 8
  %6 = alloca %struct.EventInfo, align 8
  %7 = load ptr, ptr @gdata, align 8
  %8 = getelementptr inbounds i8, ptr %7, i64 528
  %9 = load i32, ptr %8, align 8
  %10 = and i32 %9, 64
  %.not = icmp eq i32 %10, 0
  br i1 %.not, label %12, label %11

11:                                               ; preds = %4
  tail call void @log_message_begin(ptr noundef nonnull @.str.28, ptr noundef nonnull @.str.4, i32 noundef 1045) #6
  tail call void (ptr, ...) @log_message_end(ptr noundef nonnull @.str.59, ptr noundef %2) #6
  br label %12

12:                                               ; preds = %4, %11
  %13 = load ptr, ptr @callbackLock, align 8
  tail call void @debugMonitorEnter(ptr noundef %13) #6
  %.b6 = load i1, ptr @vm_death_callback_active, align 1
  br i1 %.b6, label %.thread, label %17

.thread:                                          ; preds = %12
  %14 = load ptr, ptr @callbackLock, align 8
  tail call void @debugMonitorExit(ptr noundef %14) #6
  %15 = load ptr, ptr @callbackBlock, align 8
  tail call void @debugMonitorEnter(ptr noundef %15) #6
  %16 = load ptr, ptr @callbackBlock, align 8
  tail call void @debugMonitorExit(ptr noundef %16) #6
  br label %54

17:                                               ; preds = %12
  %18 = load i32, ptr @active_callbacks, align 4
  %19 = add nsw i32 %18, 1
  store i32 %19, ptr @active_callbacks, align 4
  %20 = load ptr, ptr @callbackLock, align 8
  tail call void @debugMonitorExit(ptr noundef %20) #6
  call void @llvm.memset.p0.i64(ptr noundef nonnull align 8 dereferenceable(88) %6, i8 0, i64 88, i1 false)
  store i32 13, ptr %6, align 8
  %21 = getelementptr inbounds i8, ptr %6, i64 8
  store ptr %2, ptr %21, align 8
  call void @llvm.lifetime.start.p0(i64 8, ptr nonnull %5)
  store ptr null, ptr %5, align 8
  %22 = icmp eq ptr %3, null
  br i1 %22, label %getMethodClass.exit, label %23

23:                                               ; preds = %17
  %24 = call i32 @methodClass(ptr noundef nonnull %3, ptr noundef nonnull %5) #6
  %.not.i = icmp eq i32 %24, 0
  br i1 %.not.i, label %28, label %25

25:                                               ; preds = %23
  %26 = load ptr, ptr @stderr, align 8
  %27 = call ptr @jvmtiErrorText(i32 noundef %24) #6
  call void (ptr, ptr, ptr, ptr, ...) @print_message(ptr noundef %26, ptr noundef nonnull @.str, ptr noundef nonnull @.str.1, ptr noundef nonnull @.str.2, ptr noundef %27, i32 noundef %24, ptr noundef nonnull @.str.6, ptr noundef nonnull @.str.4, i32 noundef 728) #6
  call void @debugInit_exit(i32 noundef %24, ptr noundef nonnull @.str.6) #6
  br label %getMethodClass.exit

28:                                               ; preds = %23
  %29 = load ptr, ptr %5, align 8
  br label %getMethodClass.exit

getMethodClass.exit:                              ; preds = %17, %25, %28
  %.0.i = phi ptr [ null, %25 ], [ %29, %28 ], [ null, %17 ]
  call void @llvm.lifetime.end.p0(i64 8, ptr nonnull %5)
  %30 = getelementptr inbounds i8, ptr %6, i64 24
  store ptr %.0.i, ptr %30, align 8
  %31 = getelementptr inbounds i8, ptr %6, i64 32
  store ptr %3, ptr %31, align 8
  call fastcc void @event_callback(ptr noundef %1, ptr noundef nonnull %6)
  %32 = load ptr, ptr @callbackLock, align 8
  call void @debugMonitorEnter(ptr noundef %32) #6
  %33 = load i32, ptr @active_callbacks, align 4
  %34 = add nsw i32 %33, -1
  store i32 %34, ptr @active_callbacks, align 4
  %35 = icmp slt i32 %33, 1
  br i1 %35, label %36, label %39

36:                                               ; preds = %getMethodClass.exit
  %37 = load ptr, ptr @stderr, align 8
  %38 = call ptr @jvmtiErrorText(i32 noundef 0) #6
  call void (ptr, ptr, ptr, ptr, ...) @print_message(ptr noundef %37, ptr noundef nonnull @.str, ptr noundef nonnull @.str.1, ptr noundef nonnull @.str.2, ptr noundef %38, i32 noundef 0, ptr noundef nonnull @.str.30, ptr noundef nonnull @.str.4, i32 noundef 1054) #6
  call void @debugInit_exit(i32 noundef 0, ptr noundef nonnull @.str.30) #6
  br label %39

39:                                               ; preds = %36, %getMethodClass.exit
  %.b = load i1, ptr @vm_death_callback_active, align 1
  %40 = load i32, ptr @active_callbacks, align 4
  %41 = icmp eq i32 %40, 0
  br i1 %.b, label %42, label %49

42:                                               ; preds = %39
  br i1 %41, label %43, label %45

43:                                               ; preds = %42
  %44 = load ptr, ptr @callbackLock, align 8
  call void @debugMonitorNotifyAll(ptr noundef %44) #6
  br label %45

45:                                               ; preds = %43, %42
  %46 = load ptr, ptr @callbackLock, align 8
  call void @debugMonitorExit(ptr noundef %46) #6
  %47 = load ptr, ptr @callbackBlock, align 8
  call void @debugMonitorEnter(ptr noundef %47) #6
  %48 = load ptr, ptr @callbackBlock, align 8
  call void @debugMonitorExit(ptr noundef %48) #6
  br label %54

49:                                               ; preds = %39
  br i1 %41, label %50, label %52

50:                                               ; preds = %49
  %51 = load ptr, ptr @callbackLock, align 8
  call void @debugMonitorNotifyAll(ptr noundef %51) #6
  br label %52

52:                                               ; preds = %50, %49
  %53 = load ptr, ptr @callbackLock, align 8
  call void @debugMonitorExit(ptr noundef %53) #6
  br label %54

54:                                               ; preds = %.thread, %45, %52
  %55 = load ptr, ptr @gdata, align 8
  %56 = getelementptr inbounds i8, ptr %55, i64 528
  %57 = load i32, ptr %56, align 8
  %58 = and i32 %57, 8
  %.not8 = icmp eq i32 %58, 0
  br i1 %.not8, label %60, label %59

59:                                               ; preds = %54
  call void @log_message_begin(ptr noundef nonnull @.str.25, ptr noundef nonnull @.str.4, i32 noundef 1056) #6
  call void (ptr, ...) @log_message_end(ptr noundef nonnull @.str.60) #6
  br label %60

60:                                               ; preds = %54, %59
  ret void
}